target datalayout = "e-m:e-p270:32:32-p271:32:32-p272:64:64-i64:64-i128:128-f80:128-n8:16:32:64-S128"
target triple = "x86_64-pc-linux-gnu"

%"class.cv::utils::trace::details::TraceManager" = type { %"class.std::recursive_mutex", %"class.std::recursive_mutex", %"class.cv::TLSDataAccumulator", %"struct.cv::Ptr" }
%"class.std::recursive_mutex" = type { %"class.std::__recursive_mutex_base" }
%"class.std::__recursive_mutex_base" = type { %union.pthread_mutex_t }
%union.pthread_mutex_t = type { %struct.__pthread_mutex_s }
%struct.__pthread_mutex_s = type { i32, i32, i32, i32, i32, i16, i16, %struct.__pthread_internal_list }
%struct.__pthread_internal_list = type { ptr, ptr }
%"class.cv::TLSDataAccumulator" = type <{ %"class.cv::TLSData.base", [4 x i8], %"class.std::recursive_mutex", %"class.std::vector", %"class.std::vector", i8, [7 x i8] }>
%"class.cv::TLSData.base" = type { %"class.cv::TLSDataContainer.base" }
%"class.cv::TLSDataContainer.base" = type <{ ptr, i32 }>
%"class.std::vector" = type { %"struct.std::_Vector_base" }
%"struct.std::_Vector_base" = type { %"struct.std::_Vector_base<cv::utils::trace::details::TraceManagerThreadLocal *, std::allocator<cv::utils::trace::details::TraceManagerThreadLocal *>>::_Vector_impl" }
%"struct.std::_Vector_base<cv::utils::trace::details::TraceManagerThreadLocal *, std::allocator<cv::utils::trace::details::TraceManagerThreadLocal *>>::_Vector_impl" = type { %"struct.std::_Vector_base<cv::utils::trace::details::TraceManagerThreadLocal *, std::allocator<cv::utils::trace::details::TraceManagerThreadLocal *>>::_Vector_impl_data" }
%"struct.std::_Vector_base<cv::utils::trace::details::TraceManagerThreadLocal *, std::allocator<cv::utils::trace::details::TraceManagerThreadLocal *>>::_Vector_impl_data" = type { ptr, ptr, ptr }
%"struct.cv::Ptr" = type { %"class.std::shared_ptr" }
%"class.std::shared_ptr" = type { %"class.std::__shared_ptr" }
%"class.std::__shared_ptr" = type { ptr, %"class.std::__shared_count" }
%"class.std::__shared_count" = type { ptr }

@__dso_handle = external hidden global i8
@_ZZN2cv5utils5trace7detailsL23getTraceManagerCallOnceEvE14globalInstance = internal global %"class.cv::utils::trace::details::TraceManager" zeroinitializer, align 8
@_ZGVZN2cv5utils5trace7detailsL23getTraceManagerCallOnceEvE14globalInstance = internal global i64 0, align 8
@_ZN2cv5utils5trace7details12TraceManagerC1Ev = unnamed_addr alias void (ptr), ptr @_ZN2cv5utils5trace7details12TraceManagerC2Ev
@_ZN2cv5utils5trace7details12TraceManagerD1Ev = unnamed_addr alias void (ptr), ptr @_ZN2cv5utils5trace7details12TraceManagerD2Ev

; Function Attrs: mustprogress uwtable
define internal noundef ptr @_ZN2cv5utils5trace7detailsL23getTraceManagerCallOnceEv() #4 personality ptr @__gxx_personality_v0 {
  %1 = alloca ptr, align 8
  %2 = alloca i32, align 4
  %3 = load atomic i8, ptr @_ZGVZN2cv5utils5trace7detailsL23getTraceManagerCallOnceEvE14globalInstance acquire, align 8
  %4 = icmp eq i8 %3, 0
  br i1 %4, label %5, label %11, !prof !42

5:                                                ; preds = %0
  %6 = call i32 @__cxa_guard_acquire(ptr @_ZGVZN2cv5utils5trace7detailsL23getTraceManagerCallOnceEvE14globalInstance) #3
  %7 = icmp ne i32 %6, 0
  br i1 %7, label %8, label %11

8:                                                ; preds = %5
  invoke void @_ZN2cv5utils5trace7details12TraceManagerC1Ev(ptr noundef nonnull align 8 dereferenceable(208) @_ZZN2cv5utils5trace7detailsL23getTraceManagerCallOnceEvE14globalInstance)
          to label %9 unwind label %12

9:                                                ; preds = %8
  %10 = call i32 @__cxa_atexit(ptr @_ZN2cv5utils5trace7details12TraceManagerD1Ev, ptr @_ZZN2cv5utils5trace7detailsL23getTraceManagerCallOnceEvE14globalInstance, ptr @__dso_handle) #3
  call void @__cxa_guard_release(ptr @_ZGVZN2cv5utils5trace7detailsL23getTraceManagerCallOnceEvE14globalInstance) #3
  br label %11

11:                                               ; preds = %9, %5, %0
  ret ptr @_ZZN2cv5utils5trace7detailsL23getTraceManagerCallOnceEvE14globalInstance

12:                                               ; preds = %8
  %13 = landingpad { ptr, i32 }
          cleanup
  %14 = extractvalue { ptr, i32 } %13, 0
  store ptr %14, ptr %1, align 8
  %15 = extractvalue { ptr, i32 } %13, 1
  store i32 %15, ptr %2, align 4
  call void @__cxa_guard_abort(ptr @_ZGVZN2cv5utils5trace7detailsL23getTraceManagerCallOnceEvE14globalInstance) #3
  br label %16

16:                                               ; preds = %12
  %17 = load ptr, ptr %1, align 8
  %18 = load i32, ptr %2, align 4
  %19 = insertvalue { ptr, i32 } poison, ptr %17, 0
  %20 = insertvalue { ptr, i32 } %19, i32 %18, 1
  resume { ptr, i32 } %20
}