; Function Attrs: mustprogress uwtable
define internal fastcc void @_ZN2cv5utils5trace7detailsL23getTraceManagerCallOnceEv() unnamed_addr #3 personality ptr @__gxx_personality_v0 {
  %1 = load atomic i8, ptr @_ZGVZN2cv5utils5trace7detailsL23getTraceManagerCallOnceEvE14globalInstance acquire, align 8
  %2 = icmp eq i8 %1, 0
  br i1 %2, label %3, label %8, !prof !28

3:                                                ; preds = %0
  %4 = tail call i32 @__cxa_guard_acquire(ptr nonnull @_ZGVZN2cv5utils5trace7detailsL23getTraceManagerCallOnceEvE14globalInstance) #24
  %.not = icmp eq i32 %4, 0
  br i1 %.not, label %8, label %5

5:                                                ; preds = %3
  invoke void @_ZN2cv5utils5trace7details12TraceManagerC1Ev(ptr noundef nonnull align 8 dereferenceable(208) @_ZZN2cv5utils5trace7detailsL23getTraceManagerCallOnceEvE14globalInstance)
          to label %6 unwind label %9

6:                                                ; preds = %5
  %7 = tail call i32 @__cxa_atexit(ptr nonnull @_ZN2cv5utils5trace7details12TraceManagerD1Ev, ptr nonnull @_ZZN2cv5utils5trace7detailsL23getTraceManagerCallOnceEvE14globalInstance, ptr nonnull @__dso_handle) #24
  tail call void @__cxa_guard_release(ptr nonnull @_ZGVZN2cv5utils5trace7detailsL23getTraceManagerCallOnceEvE14globalInstance) #24
  br label %8

8:                                                ; preds = %6, %3, %0
  ret void

9:                                                ; preds = %5
  %10 = landingpad { ptr, i32 }
          cleanup
  tail call void @__cxa_guard_abort(ptr nonnull @_ZGVZN2cv5utils5trace7detailsL23getTraceManagerCallOnceEvE14globalInstance) #24
  resume { ptr, i32 } %10
}